SF:/home/runner/work/BazBOM/BazBOM/crates/bazbom-advisories/src/lib.rs
FN:21,_RINvCs8Em1FzC0lLG_17bazbom_advisories10write_fileNtNtCscKkwsb9kWaL_3std4path7PathBufECscdl83nmlmkc_6bazbom
FN:49,_RINvCs8Em1FzC0lLG_17bazbom_advisories7db_syncRNtNtCscKkwsb9kWaL_3std4path7PathBufECscdl83nmlmkc_6bazbom
FN:121,_RNCINvCs8Em1FzC0lLG_17bazbom_advisories7db_syncRNtNtCscKkwsb9kWaL_3std4path7PathBufE0Cscdl83nmlmkc_6bazbom
FN:35,_RNvCs8Em1FzC0lLG_17bazbom_advisories20fetch_or_placeholder
FN:21,_RINvCs8Em1FzC0lLG_17bazbom_advisories10write_filepEB2_
FN:49,_RINvCs8Em1FzC0lLG_17bazbom_advisories7db_syncpEB2_
FN:121,_RNCINvCs8Em1FzC0lLG_17bazbom_advisories7db_syncpE0B4_
FN:172,_RNvNtCsepWU9hJIF0a_17bazbom_advisories5testss_15test_write_file
FN:136,_RNvNtCsepWU9hJIF0a_17bazbom_advisories5testss_20test_db_sync_offline
FN:156,_RNvNtCsepWU9hJIF0a_17bazbom_advisories5testss_27test_manifest_serialization
FN:21,_RINvCsepWU9hJIF0a_17bazbom_advisories10write_fileNtNtCscKkwsb9kWaL_3std4path7PathBufEB2_
FN:21,_RINvCsepWU9hJIF0a_17bazbom_advisories10write_fileRNtNtCscKkwsb9kWaL_3std4path7PathBufEB2_
FN:49,_RINvCsepWU9hJIF0a_17bazbom_advisories7db_syncRNtNtCscKkwsb9kWaL_3std4path7PathBufEB2_
FN:121,_RNCINvCsepWU9hJIF0a_17bazbom_advisories7db_syncRNtNtCscKkwsb9kWaL_3std4path7PathBufE0B4_
FN:35,_RNvCsepWU9hJIF0a_17bazbom_advisories20fetch_or_placeholder
FNDA:0,_RINvCs8Em1FzC0lLG_17bazbom_advisories10write_fileNtNtCscKkwsb9kWaL_3std4path7PathBufECscdl83nmlmkc_6bazbom
FNDA:0,_RINvCs8Em1FzC0lLG_17bazbom_advisories7db_syncRNtNtCscKkwsb9kWaL_3std4path7PathBufECscdl83nmlmkc_6bazbom
FNDA:0,_RNCINvCs8Em1FzC0lLG_17bazbom_advisories7db_syncRNtNtCscKkwsb9kWaL_3std4path7PathBufE0Cscdl83nmlmkc_6bazbom
FNDA:0,_RNvCs8Em1FzC0lLG_17bazbom_advisories20fetch_or_placeholder
FNDA:0,_RINvCs8Em1FzC0lLG_17bazbom_advisories10write_filepEB2_
FNDA:0,_RINvCs8Em1FzC0lLG_17bazbom_advisories7db_syncpEB2_
FNDA:0,_RNCINvCs8Em1FzC0lLG_17bazbom_advisories7db_syncpE0B4_
FNDA:1,_RNvNtCsepWU9hJIF0a_17bazbom_advisories5testss_15test_write_file
FNDA:1,_RNvNtCsepWU9hJIF0a_17bazbom_advisories5testss_20test_db_sync_offline
FNDA:1,_RNvNtCsepWU9hJIF0a_17bazbom_advisories5testss_27test_manifest_serialization
FNDA:6,_RINvCsepWU9hJIF0a_17bazbom_advisories10write_fileNtNtCscKkwsb9kWaL_3std4path7PathBufEB2_
FNDA:1,_RINvCsepWU9hJIF0a_17bazbom_advisories10write_fileRNtNtCscKkwsb9kWaL_3std4path7PathBufEB2_
FNDA:1,_RINvCsepWU9hJIF0a_17bazbom_advisories7db_syncRNtNtCscKkwsb9kWaL_3std4path7PathBufEB2_
FNDA:0,_RNCINvCsepWU9hJIF0a_17bazbom_advisories7db_syncRNtNtCscKkwsb9kWaL_3std4path7PathBufE0B4_
FNDA:0,_RNvCsepWU9hJIF0a_17bazbom_advisories20fetch_or_placeholder
FNF:7
FNH:5
DA:21,7
DA:22,7
DA:23,7
DA:24,7
DA:25,0
DA:26,7
DA:27,7
DA:28,7
DA:29,7
DA:30,7
DA:31,7
DA:32,7
DA:33,7
DA:35,0
DA:36,0
DA:37,0
DA:38,0
DA:39,0
DA:40,0
DA:42,0
DA:45,0
DA:47,0
DA:49,1
DA:50,1
DA:51,1
DA:52,1
DA:55,1
DA:56,1
DA:59,1
DA:60,1
DA:62,0
DA:64,1
DA:65,1
DA:66,1
DA:67,0
DA:70,1
DA:71,1
DA:73,0
DA:74,0
DA:75,0
DA:78,1
DA:79,1
DA:80,1
DA:81,0
DA:84,1
DA:85,1
DA:86,1
DA:87,1
DA:88,0
DA:91,1
DA:92,1
DA:94,0
DA:95,0
DA:96,0
DA:99,1
DA:100,1
DA:101,1
DA:102,0
DA:105,1
DA:106,1
DA:108,0
DA:109,0
DA:110,0
DA:113,1
DA:114,1
DA:115,1
DA:116,0
DA:119,1
DA:120,1
DA:121,1
DA:122,1
DA:123,1
DA:124,1
DA:125,1
DA:126,1
DA:127,1
DA:128,1
DA:129,1
DA:136,1
DA:137,1
DA:138,1
DA:140,1
DA:141,1
DA:143,1
DA:144,1
DA:147,1
DA:148,1
DA:149,1
DA:150,1
DA:151,1
DA:152,1
DA:153,1
DA:156,1
DA:157,1
DA:158,1
DA:159,1
DA:160,1
DA:161,1
DA:162,1
DA:163,1
DA:164,1
DA:166,1
DA:167,1
DA:168,1
DA:169,1
DA:172,1
DA:173,1
DA:174,1
DA:175,1
DA:177,1
DA:178,1
DA:180,1
DA:181,1
DA:182,1
DA:185,1
DA:186,1
DA:187,1
BRF:0
BRH:0
LF:118
LH:92
end_of_record
SF:/home/runner/work/BazBOM/BazBOM/crates/bazbom-core/src/lib.rs
FN:38,_RINvCsbU3zSADM6H4_11bazbom_core15write_stub_sbomRNtNtCscKkwsb9kWaL_3std4path7PathBufECscdl83nmlmkc_6bazbom
FN:18,_RINvCsbU3zSADM6H4_11bazbom_core19detect_build_systemRNtNtCscKkwsb9kWaL_3std4path7PathBufECscdl83nmlmkc_6bazbom
FN:20,_RNCINvCsbU3zSADM6H4_11bazbom_core19detect_build_systemRNtNtCscKkwsb9kWaL_3std4path7PathBufE0Cscdl83nmlmkc_6bazbom
FN:38,_RINvCskSgYjk8Zu2Y_11bazbom_core15write_stub_sbompEB2_
FN:18,_RINvCskSgYjk8Zu2Y_11bazbom_core19detect_build_systempEB2_
FN:20,_RNCINvCskSgYjk8Zu2Y_11bazbom_core19detect_build_systempE0B4_
FN:6,_RNvCskSgYjk8Zu2Y_11bazbom_core7version
FN:18,_RINvCsbU3zSADM6H4_11bazbom_core19detect_build_systemRNtNtCscKkwsb9kWaL_3std4path4PathECsgT3eVBPdG2D_6detect
FN:20,_RNCINvCsbU3zSADM6H4_11bazbom_core19detect_build_systemRNtNtCscKkwsb9kWaL_3std4path4PathE0CsgT3eVBPdG2D_6detect
FNDA:1,_RINvCsbU3zSADM6H4_11bazbom_core15write_stub_sbomRNtNtCscKkwsb9kWaL_3std4path7PathBufECscdl83nmlmkc_6bazbom
FNDA:1,_RINvCsbU3zSADM6H4_11bazbom_core19detect_build_systemRNtNtCscKkwsb9kWaL_3std4path7PathBufECscdl83nmlmkc_6bazbom
FNDA:7,_RNCINvCsbU3zSADM6H4_11bazbom_core19detect_build_systemRNtNtCscKkwsb9kWaL_3std4path7PathBufE0Cscdl83nmlmkc_6bazbom
FNDA:0,_RINvCskSgYjk8Zu2Y_11bazbom_core15write_stub_sbompEB2_
FNDA:0,_RINvCskSgYjk8Zu2Y_11bazbom_core19detect_build_systempEB2_
FNDA:0,_RNCINvCskSgYjk8Zu2Y_11bazbom_core19detect_build_systempE0B4_
FNDA:0,_RNvCskSgYjk8Zu2Y_11bazbom_core7version
FNDA:4,_RINvCsbU3zSADM6H4_11bazbom_core19detect_build_systemRNtNtCscKkwsb9kWaL_3std4path4PathECsgT3eVBPdG2D_6detect
FNDA:17,_RNCINvCsbU3zSADM6H4_11bazbom_core19detect_build_systemRNtNtCscKkwsb9kWaL_3std4path4PathE0CsgT3eVBPdG2D_6detect
FNF:4
FNH:3
DA:6,0
DA:7,0
DA:8,0
DA:18,5
DA:19,5
DA:20,24
DA:22,5
DA:23,1
DA:24,4
DA:25,4
DA:26,4
DA:27,3
DA:28,3
DA:30,1
DA:31,3
DA:32,3
DA:33,1
DA:34,2
DA:35,2
DA:36,5
DA:38,1
DA:39,1
DA:40,1
DA:41,1
DA:42,1
DA:43,1
DA:44,1
DA:46,1
DA:47,1
DA:48,0
DA:49,0
DA:50,0
DA:51,0
DA:52,0
DA:55,1
DA:56,1
DA:58,1
DA:60,1
DA:61,1
DA:62,1
DA:65,1
BRF:0
BRH:0
LF:42
LH:34
end_of_record
SF:/home/runner/work/BazBOM/BazBOM/crates/bazbom-formats/src/cyclonedx.rs
FN:61,_RINvMNtCs2BjaQKZeu9A_14bazbom_formats9cyclonedxNtB3_12CycloneDxBom3newReB16_ECscdl83nmlmkc_6bazbom
FN:61,_RINvMNtCsbgQKalIxycu_14bazbom_formats9cyclonedxNtB3_12CycloneDxBom3newReB16_EB5_
FN:105,_RINvMs_NtCsbgQKalIxycu_14bazbom_formats9cyclonedxNtB5_9Component12with_licenseReEB7_
FN:95,_RINvMs_NtCsbgQKalIxycu_14bazbom_formats9cyclonedxNtB5_9Component12with_versionReEB7_
FN:85,_RINvMs_NtCsbgQKalIxycu_14bazbom_formats9cyclonedxNtB5_9Component3newReB14_EB7_
FN:100,_RINvMs_NtCsbgQKalIxycu_14bazbom_formats9cyclonedxNtB5_9Component9with_purlReEB7_
FN:79,_RNvMNtCsbgQKalIxycu_14bazbom_formats9cyclonedxNtB2_12CycloneDxBom13add_component
FN:121,_RNvNtNtCsbgQKalIxycu_14bazbom_formats9cyclonedx5testss_15test_create_bom
FN:129,_RNvNtNtCsbgQKalIxycu_14bazbom_formats9cyclonedx5testss_18test_add_component
FN:141,_RNvNtNtCsbgQKalIxycu_14bazbom_formats9cyclonedx5testss_22test_serialize_to_json
FN:61,_RINvMNtCs2BjaQKZeu9A_14bazbom_formats9cyclonedxNtB3_12CycloneDxBom3newReB16_ECsnuV9Rp3xst_16cyclonedx_schema
FN:105,_RINvMs_NtCs2BjaQKZeu9A_14bazbom_formats9cyclonedxNtB5_9Component12with_licenseReECsnuV9Rp3xst_16cyclonedx_schema
FN:95,_RINvMs_NtCs2BjaQKZeu9A_14bazbom_formats9cyclonedxNtB5_9Component12with_versionReECsnuV9Rp3xst_16cyclonedx_schema
FN:85,_RINvMs_NtCs2BjaQKZeu9A_14bazbom_formats9cyclonedxNtB5_9Component3newReB14_ECsnuV9Rp3xst_16cyclonedx_schema
FN:100,_RINvMs_NtCs2BjaQKZeu9A_14bazbom_formats9cyclonedxNtB5_9Component9with_purlReECsnuV9Rp3xst_16cyclonedx_schema
FN:79,_RNvMNtCs2BjaQKZeu9A_14bazbom_formats9cyclonedxNtB2_12CycloneDxBom13add_component
FN:61,_RINvMNtCs2BjaQKZeu9A_14bazbom_formats9cyclonedxNtB3_12CycloneDxBom3newppEB5_
FN:105,_RINvMs_NtCs2BjaQKZeu9A_14bazbom_formats9cyclonedxNtB5_9Component12with_licensepEB7_
FN:95,_RINvMs_NtCs2BjaQKZeu9A_14bazbom_formats9cyclonedxNtB5_9Component12with_versionpEB7_
FN:85,_RINvMs_NtCs2BjaQKZeu9A_14bazbom_formats9cyclonedxNtB5_9Component3newppEB7_
FN:100,_RINvMs_NtCs2BjaQKZeu9A_14bazbom_formats9cyclonedxNtB5_9Component9with_purlpEB7_
FNDA:0,_RINvMNtCs2BjaQKZeu9A_14bazbom_formats9cyclonedxNtB3_12CycloneDxBom3newReB16_ECscdl83nmlmkc_6bazbom
FNDA:3,_RINvMNtCsbgQKalIxycu_14bazbom_formats9cyclonedxNtB3_12CycloneDxBom3newReB16_EB5_
FNDA:1,_RINvMs_NtCsbgQKalIxycu_14bazbom_formats9cyclonedxNtB5_9Component12with_licenseReEB7_
FNDA:1,_RINvMs_NtCsbgQKalIxycu_14bazbom_formats9cyclonedxNtB5_9Component12with_versionReEB7_
FNDA:1,_RINvMs_NtCsbgQKalIxycu_14bazbom_formats9cyclonedxNtB5_9Component3newReB14_EB7_
FNDA:1,_RINvMs_NtCsbgQKalIxycu_14bazbom_formats9cyclonedxNtB5_9Component9with_purlReEB7_
FNDA:1,_RNvMNtCsbgQKalIxycu_14bazbom_formats9cyclonedxNtB2_12CycloneDxBom13add_component
FNDA:1,_RNvNtNtCsbgQKalIxycu_14bazbom_formats9cyclonedx5testss_15test_create_bom
FNDA:1,_RNvNtNtCsbgQKalIxycu_14bazbom_formats9cyclonedx5testss_18test_add_component
FNDA:1,_RNvNtNtCsbgQKalIxycu_14bazbom_formats9cyclonedx5testss_22test_serialize_to_json
FNDA:4,_RINvMNtCs2BjaQKZeu9A_14bazbom_formats9cyclonedxNtB3_12CycloneDxBom3newReB16_ECsnuV9Rp3xst_16cyclonedx_schema
FNDA:1,_RINvMs_NtCs2BjaQKZeu9A_14bazbom_formats9cyclonedxNtB5_9Component12with_licenseReECsnuV9Rp3xst_16cyclonedx_schema
FNDA:6,_RINvMs_NtCs2BjaQKZeu9A_14bazbom_formats9cyclonedxNtB5_9Component12with_versionReECsnuV9Rp3xst_16cyclonedx_schema
FNDA:9,_RINvMs_NtCs2BjaQKZeu9A_14bazbom_formats9cyclonedxNtB5_9Component3newReB14_ECsnuV9Rp3xst_16cyclonedx_schema
FNDA:1,_RINvMs_NtCs2BjaQKZeu9A_14bazbom_formats9cyclonedxNtB5_9Component9with_purlReECsnuV9Rp3xst_16cyclonedx_schema
FNDA:4,_RNvMNtCs2BjaQKZeu9A_14bazbom_formats9cyclonedxNtB2_12CycloneDxBom13add_component
FNDA:0,_RINvMNtCs2BjaQKZeu9A_14bazbom_formats9cyclonedxNtB3_12CycloneDxBom3newppEB5_
FNDA:0,_RINvMs_NtCs2BjaQKZeu9A_14bazbom_formats9cyclonedxNtB5_9Component12with_licensepEB7_
FNDA:0,_RINvMs_NtCs2BjaQKZeu9A_14bazbom_formats9cyclonedxNtB5_9Component12with_versionpEB7_
FNDA:0,_RINvMs_NtCs2BjaQKZeu9A_14bazbom_formats9cyclonedxNtB5_9Component3newppEB7_
FNDA:0,_RINvMs_NtCs2BjaQKZeu9A_14bazbom_formats9cyclonedxNtB5_9Component9with_purlpEB7_
FNF:9
FNH:9
DA:61,7
DA:62,7
DA:63,7
DA:64,7
DA:65,7
DA:66,7
DA:67,7
DA:68,7
DA:69,7
DA:70,7
DA:71,7
DA:72,7
DA:73,7
DA:74,7
DA:75,7
DA:76,7
DA:77,7
DA:79,5
DA:80,5
DA:81,5
DA:85,10
DA:86,10
DA:87,10
DA:88,10
DA:89,10
DA:90,10
DA:91,10
DA:92,10
DA:93,10
DA:95,7
DA:96,7
DA:97,7
DA:98,7
DA:100,2
DA:101,2
DA:102,2
DA:103,2
DA:105,2
DA:106,2
DA:107,2
DA:108,2
DA:109,2
DA:110,2
DA:111,2
DA:112,2
DA:113,2
DA:121,1
DA:122,1
DA:123,1
DA:124,1
DA:125,1
DA:126,1
DA:129,1
DA:130,1
DA:131,1
DA:132,1
DA:133,1
DA:134,1
DA:135,1
DA:136,1
DA:137,1
DA:138,1
DA:141,1
DA:142,1
DA:143,1
DA:144,1
DA:145,1
DA:146,1
BRF:0
BRH:0
LF:68
LH:68
end_of_record
SF:/home/runner/work/BazBOM/BazBOM/crates/bazbom-formats/src/lib.rs
FN:28,_RNvMs_CsbgQKalIxycu_14bazbom_formatsNtB4_12OutputFormat9extension
FN:17,_RNvXCsbgQKalIxycu_14bazbom_formatsNtB2_12OutputFormatNtNtNtCs5GmCzIpY9Qj_4core3str6traits7FromStr8from_str
FNDA:0,_RNvMs_CsbgQKalIxycu_14bazbom_formatsNtB4_12OutputFormat9extension
FNDA:0,_RNvXCsbgQKalIxycu_14bazbom_formatsNtB2_12OutputFormatNtNtNtCs5GmCzIpY9Qj_4core3str6traits7FromStr8from_str
FNF:2
FNH:0
DA:17,0
DA:18,0
DA:19,0
DA:20,0
DA:21,0
DA:22,0
DA:24,0
DA:28,0
DA:29,0
DA:30,0
DA:31,0
DA:32,0
DA:34,0
BRF:0
BRH:0
LF:13
LH:0
end_of_record
SF:/home/runner/work/BazBOM/BazBOM/crates/bazbom-formats/src/sarif.rs
FN:87,_RINvMNtCs2BjaQKZeu9A_14bazbom_formats5sarifNtB3_11SarifReport3newReB11_ECscdl83nmlmkc_6bazbom
FN:151,_RINvMs0_NtCsbgQKalIxycu_14bazbom_formats5sarifNtB6_4Rule3newpppEB8_
FN:111,_RNvMNtCsbgQKalIxycu_14bazbom_formats5sarifNtB2_11SarifReport8add_rule
FN:182,_RNvNtNtCsbgQKalIxycu_14bazbom_formats5sarif5testss_15test_add_result
FN:191,_RNvNtNtCsbgQKalIxycu_14bazbom_formats5sarif5testss_22test_serialize_to_json
FN:175,_RNvNtNtCsbgQKalIxycu_14bazbom_formats5sarif5testss_24test_create_sarif_report
FN:105,_RNvMNtCsbgQKalIxycu_14bazbom_formats5sarifNtB2_11SarifReport10add_result
FN:87,_RINvMNtCsbgQKalIxycu_14bazbom_formats5sarifNtB3_11SarifReport3newReB11_EB5_
FN:139,_RINvMs_NtCsbgQKalIxycu_14bazbom_formats5sarifNtB5_6Result13with_locationReEB7_
FN:124,_RINvMs_NtCsbgQKalIxycu_14bazbom_formats5sarifNtB5_6Result3newReBX_BX_EB7_
FN:87,_RINvMNtCs2BjaQKZeu9A_14bazbom_formats5sarifNtB3_11SarifReport3newReB11_ECs8lHnBR88u63_12sarif_schema
FN:139,_RINvMs_NtCs2BjaQKZeu9A_14bazbom_formats5sarifNtB5_6Result13with_locationReECs8lHnBR88u63_12sarif_schema
FN:124,_RINvMs_NtCs2BjaQKZeu9A_14bazbom_formats5sarifNtB5_6Result3newReBX_BX_ECs8lHnBR88u63_12sarif_schema
FN:105,_RNvMNtCs2BjaQKZeu9A_14bazbom_formats5sarifNtB2_11SarifReport10add_result
FN:111,_RNvMNtCs2BjaQKZeu9A_14bazbom_formats5sarifNtB2_11SarifReport8add_rule
FN:87,_RINvMNtCs2BjaQKZeu9A_14bazbom_formats5sarifNtB3_11SarifReport3newppEB5_
FN:151,_RINvMs0_NtCs2BjaQKZeu9A_14bazbom_formats5sarifNtB6_4Rule3newpppEB8_
FN:139,_RINvMs_NtCs2BjaQKZeu9A_14bazbom_formats5sarifNtB5_6Result13with_locationpEB7_
FN:124,_RINvMs_NtCs2BjaQKZeu9A_14bazbom_formats5sarifNtB5_6Result3newpppEB7_
FNDA:1,_RINvMNtCs2BjaQKZeu9A_14bazbom_formats5sarifNtB3_11SarifReport3newReB11_ECscdl83nmlmkc_6bazbom
FNDA:0,_RINvMs0_NtCsbgQKalIxycu_14bazbom_formats5sarifNtB6_4Rule3newpppEB8_
FNDA:0,_RNvMNtCsbgQKalIxycu_14bazbom_formats5sarifNtB2_11SarifReport8add_rule
FNDA:1,_RNvNtNtCsbgQKalIxycu_14bazbom_formats5sarif5testss_15test_add_result
FNDA:1,_RNvNtNtCsbgQKalIxycu_14bazbom_formats5sarif5testss_22test_serialize_to_json
FNDA:1,_RNvNtNtCsbgQKalIxycu_14bazbom_formats5sarif5testss_24test_create_sarif_report
FNDA:1,_RNvMNtCsbgQKalIxycu_14bazbom_formats5sarifNtB2_11SarifReport10add_result
FNDA:3,_RINvMNtCsbgQKalIxycu_14bazbom_formats5sarifNtB3_11SarifReport3newReB11_EB5_
FNDA:1,_RINvMs_NtCsbgQKalIxycu_14bazbom_formats5sarifNtB5_6Result13with_locationReEB7_
FNDA:1,_RINvMs_NtCsbgQKalIxycu_14bazbom_formats5sarifNtB5_6Result3newReBX_BX_EB7_
FNDA:4,_RINvMNtCs2BjaQKZeu9A_14bazbom_formats5sarifNtB3_11SarifReport3newReB11_ECs8lHnBR88u63_12sarif_schema
FNDA:3,_RINvMs_NtCs2BjaQKZeu9A_14bazbom_formats5sarifNtB5_6Result13with_locationReECs8lHnBR88u63_12sarif_schema
FNDA:10,_RINvMs_NtCs2BjaQKZeu9A_14bazbom_formats5sarifNtB5_6Result3newReBX_BX_ECs8lHnBR88u63_12sarif_schema
FNDA:3,_RNvMNtCs2BjaQKZeu9A_14bazbom_formats5sarifNtB2_11SarifReport10add_result
FNDA:0,_RNvMNtCs2BjaQKZeu9A_14bazbom_formats5sarifNtB2_11SarifReport8add_rule
FNDA:0,_RINvMNtCs2BjaQKZeu9A_14bazbom_formats5sarifNtB3_11SarifReport3newppEB5_
FNDA:0,_RINvMs0_NtCs2BjaQKZeu9A_14bazbom_formats5sarifNtB6_4Rule3newpppEB8_
FNDA:0,_RINvMs_NtCs2BjaQKZeu9A_14bazbom_formats5sarifNtB5_6Result13with_locationpEB7_
FNDA:0,_RINvMs_NtCs2BjaQKZeu9A_14bazbom_formats5sarifNtB5_6Result3newpppEB7_
FNF:9
FNH:7
DA:87,8
DA:88,8
DA:89,8
DA:90,8
DA:91,8
DA:92,8
DA:93,8
DA:94,8
DA:95,8
DA:96,8
DA:97,8
DA:98,8
DA:99,8
DA:100,8
DA:101,8
DA:102,8
DA:103,8
DA:105,4
DA:106,4
DA:107,4
DA:108,4
DA:109,4
DA:111,0
DA:112,0
DA:113,0
DA:114,0
DA:115,0
DA:116,0
DA:117,0
DA:118,0
DA:119,0
DA:120,0
DA:124,11
DA:125,11
DA:126,11
DA:127,11
DA:128,11
DA:129,11
DA:130,11
DA:131,11
DA:132,11
DA:133,11
DA:134,11
DA:135,11
DA:136,11
DA:137,11
DA:139,4
DA:140,4
DA:141,4
DA:142,4
DA:143,4
DA:144,4
DA:145,4
DA:146,4
DA:147,4
DA:151,0
DA:152,0
DA:153,0
DA:154,0
DA:155,0
DA:156,0
DA:157,0
DA:158,0
DA:159,0
DA:160,0
DA:161,0
DA:162,0
DA:163,0
DA:164,0
DA:165,0
DA:166,0
DA:167,0
DA:175,1
DA:176,1
DA:177,1
DA:178,1
DA:179,1
DA:182,1
DA:183,1
DA:184,1
DA:185,1
DA:186,1
DA:187,1
DA:188,1
DA:191,1
DA:192,1
DA:193,1
DA:194,1
DA:195,1
DA:196,1
BRF:0
BRH:0
LF:90
LH:63
end_of_record
SF:/home/runner/work/BazBOM/BazBOM/crates/bazbom-formats/src/spdx.rs
FN:58,_RINvMNtCs2BjaQKZeu9A_14bazbom_formats4spdxNtB3_12SpdxDocument3newReNtNtCscmSb185pVu_5alloc6string6StringECscdl83nmlmkc_6bazbom
FN:79,_RNvMNtCsbgQKalIxycu_14bazbom_formats4spdxNtB2_12SpdxDocument16add_relationship
FN:134,_RNvNtNtCsbgQKalIxycu_14bazbom_formats4spdx5testss_16test_add_package
FN:146,_RNvNtNtCsbgQKalIxycu_14bazbom_formats4spdx5testss_22test_serialize_to_json
FN:126,_RNvNtNtCsbgQKalIxycu_14bazbom_formats4spdx5testss_25test_create_spdx_document
FN:58,_RINvMNtCsbgQKalIxycu_14bazbom_formats4spdxNtB3_12SpdxDocument3newReB11_EB5_
FN:113,_RINvMs_NtCsbgQKalIxycu_14bazbom_formats4spdxNtB5_7Package12with_licenseReEB7_
FN:98,_RINvMs_NtCsbgQKalIxycu_14bazbom_formats4spdxNtB5_7Package12with_versionReEB7_
FN:85,_RINvMs_NtCsbgQKalIxycu_14bazbom_formats4spdxNtB5_7Package3newReBX_EB7_
FN:103,_RINvMs_NtCsbgQKalIxycu_14bazbom_formats4spdxNtB5_7Package9with_purlReEB7_
FN:75,_RNvMNtCsbgQKalIxycu_14bazbom_formats4spdxNtB2_12SpdxDocument11add_package
FN:58,_RINvMNtCs2BjaQKZeu9A_14bazbom_formats4spdxNtB3_12SpdxDocument3newppEB5_
FN:113,_RINvMs_NtCs2BjaQKZeu9A_14bazbom_formats4spdxNtB5_7Package12with_licensepEB7_
FN:98,_RINvMs_NtCs2BjaQKZeu9A_14bazbom_formats4spdxNtB5_7Package12with_versionpEB7_
FN:85,_RINvMs_NtCs2BjaQKZeu9A_14bazbom_formats4spdxNtB5_7Package3newppEB7_
FN:103,_RINvMs_NtCs2BjaQKZeu9A_14bazbom_formats4spdxNtB5_7Package9with_purlpEB7_
FN:58,_RINvMNtCs2BjaQKZeu9A_14bazbom_formats4spdxNtB3_12SpdxDocument3newReB11_ECs3eK4mivswvP_11spdx_schema
FN:113,_RINvMs_NtCs2BjaQKZeu9A_14bazbom_formats4spdxNtB5_7Package12with_licenseReECs3eK4mivswvP_11spdx_schema
FN:98,_RINvMs_NtCs2BjaQKZeu9A_14bazbom_formats4spdxNtB5_7Package12with_versionReECs3eK4mivswvP_11spdx_schema
FN:85,_RINvMs_NtCs2BjaQKZeu9A_14bazbom_formats4spdxNtB5_7Package3newReBX_ECs3eK4mivswvP_11spdx_schema
FN:103,_RINvMs_NtCs2BjaQKZeu9A_14bazbom_formats4spdxNtB5_7Package9with_purlReECs3eK4mivswvP_11spdx_schema
FN:75,_RNvMNtCs2BjaQKZeu9A_14bazbom_formats4spdxNtB2_12SpdxDocument11add_package
FN:79,_RNvMNtCs2BjaQKZeu9A_14bazbom_formats4spdxNtB2_12SpdxDocument16add_relationship
FNDA:1,_RINvMNtCs2BjaQKZeu9A_14bazbom_formats4spdxNtB3_12SpdxDocument3newReNtNtCscmSb185pVu_5alloc6string6StringECscdl83nmlmkc_6bazbom
FNDA:0,_RNvMNtCsbgQKalIxycu_14bazbom_formats4spdxNtB2_12SpdxDocument16add_relationship
FNDA:1,_RNvNtNtCsbgQKalIxycu_14bazbom_formats4spdx5testss_16test_add_package
FNDA:1,_RNvNtNtCsbgQKalIxycu_14bazbom_formats4spdx5testss_22test_serialize_to_json
FNDA:1,_RNvNtNtCsbgQKalIxycu_14bazbom_formats4spdx5testss_25test_create_spdx_document
FNDA:3,_RINvMNtCsbgQKalIxycu_14bazbom_formats4spdxNtB3_12SpdxDocument3newReB11_EB5_
FNDA:1,_RINvMs_NtCsbgQKalIxycu_14bazbom_formats4spdxNtB5_7Package12with_licenseReEB7_
FNDA:1,_RINvMs_NtCsbgQKalIxycu_14bazbom_formats4spdxNtB5_7Package12with_versionReEB7_
FNDA:1,_RINvMs_NtCsbgQKalIxycu_14bazbom_formats4spdxNtB5_7Package3newReBX_EB7_
FNDA:1,_RINvMs_NtCsbgQKalIxycu_14bazbom_formats4spdxNtB5_7Package9with_purlReEB7_
FNDA:1,_RNvMNtCsbgQKalIxycu_14bazbom_formats4spdxNtB2_12SpdxDocument11add_package
FNDA:0,_RINvMNtCs2BjaQKZeu9A_14bazbom_formats4spdxNtB3_12SpdxDocument3newppEB5_
FNDA:0,_RINvMs_NtCs2BjaQKZeu9A_14bazbom_formats4spdxNtB5_7Package12with_licensepEB7_
FNDA:0,_RINvMs_NtCs2BjaQKZeu9A_14bazbom_formats4spdxNtB5_7Package12with_versionpEB7_
FNDA:0,_RINvMs_NtCs2BjaQKZeu9A_14bazbom_formats4spdxNtB5_7Package3newppEB7_
FNDA:0,_RINvMs_NtCs2BjaQKZeu9A_14bazbom_formats4spdxNtB5_7Package9with_purlpEB7_
FNDA:4,_RINvMNtCs2BjaQKZeu9A_14bazbom_formats4spdxNtB3_12SpdxDocument3newReB11_ECs3eK4mivswvP_11spdx_schema
FNDA:1,_RINvMs_NtCs2BjaQKZeu9A_14bazbom_formats4spdxNtB5_7Package12with_licenseReECs3eK4mivswvP_11spdx_schema
FNDA:4,_RINvMs_NtCs2BjaQKZeu9A_14bazbom_formats4spdxNtB5_7Package12with_versionReECs3eK4mivswvP_11spdx_schema
FNDA:5,_RINvMs_NtCs2BjaQKZeu9A_14bazbom_formats4spdxNtB5_7Package3newReBX_ECs3eK4mivswvP_11spdx_schema
FNDA:1,_RINvMs_NtCs2BjaQKZeu9A_14bazbom_formats4spdxNtB5_7Package9with_purlReECs3eK4mivswvP_11spdx_schema
FNDA:2,_RNvMNtCs2BjaQKZeu9A_14bazbom_formats4spdxNtB2_12SpdxDocument11add_package
FNDA:1,_RNvMNtCs2BjaQKZeu9A_14bazbom_formats4spdxNtB2_12SpdxDocument16add_relationship
FNF:10
FNH:10
DA:58,8
DA:59,8
DA:60,8
DA:61,8
DA:62,8
DA:63,8
DA:64,8
DA:65,8
DA:66,8
DA:67,8
DA:68,8
DA:69,8
DA:70,8
DA:71,8
DA:72,8
DA:73,8
DA:75,3
DA:76,3
DA:77,3
DA:79,1
DA:80,1
DA:81,1
DA:85,6
DA:86,6
DA:87,6
DA:88,6
DA:89,6
DA:90,6
DA:91,6
DA:92,6
DA:93,6
DA:94,6
DA:95,6
DA:96,6
DA:98,5
DA:99,5
DA:100,5
DA:101,5
DA:103,2
DA:104,2
DA:105,2
DA:106,2
DA:107,2
DA:108,2
DA:109,2
DA:110,2
DA:111,2
DA:113,2
DA:114,2
DA:115,2
DA:116,2
DA:117,2
DA:118,2
DA:126,1
DA:127,1
DA:128,1
DA:129,1
DA:130,1
DA:131,1
DA:134,1
DA:135,1
DA:136,1
DA:137,1
DA:138,1
DA:139,1
DA:140,1
DA:141,1
DA:142,1
DA:143,1
DA:146,1
DA:147,1
DA:148,1
DA:149,1
DA:150,1
DA:151,1
BRF:0
BRH:0
LF:75
LH:75
end_of_record
SF:/home/runner/work/BazBOM/BazBOM/crates/bazbom-graph/src/lib.rs
FN:42,_RNvMs_CsjYLgXJLvVtR_12bazbom_graphNtB4_15DependencyGraph13add_component
FN:54,_RNvMs_CsjYLgXJLvVtR_12bazbom_graphNtB4_15DependencyGraph13get_component
FN:38,_RNvMs_CsjYLgXJLvVtR_12bazbom_graphNtB4_15DependencyGraph3new
FN:46,_RNvMs_CsjYLgXJLvVtR_12bazbom_graphNtB4_15DependencyGraph8add_edge
FN:89,_RNvNtCsjYLgXJLvVtR_12bazbom_graph5testss_13test_add_edge
FN:71,_RNvNtCsjYLgXJLvVtR_12bazbom_graph5testss_18test_add_component
FN:64,_RNvNtCsjYLgXJLvVtR_12bazbom_graph5testss_23test_create_empty_graph
FN:8,_RINvMCsjYLgXJLvVtR_12bazbom_graphNtB3_11ComponentId3newReEB3_
FNDA:1,_RNvMs_CsjYLgXJLvVtR_12bazbom_graphNtB4_15DependencyGraph13add_component
FNDA:1,_RNvMs_CsjYLgXJLvVtR_12bazbom_graphNtB4_15DependencyGraph13get_component
FNDA:3,_RNvMs_CsjYLgXJLvVtR_12bazbom_graphNtB4_15DependencyGraph3new
FNDA:1,_RNvMs_CsjYLgXJLvVtR_12bazbom_graphNtB4_15DependencyGraph8add_edge
FNDA:1,_RNvNtCsjYLgXJLvVtR_12bazbom_graph5testss_13test_add_edge
FNDA:1,_RNvNtCsjYLgXJLvVtR_12bazbom_graph5testss_18test_add_component
FNDA:1,_RNvNtCsjYLgXJLvVtR_12bazbom_graph5testss_23test_create_empty_graph
FNDA:3,_RINvMCsjYLgXJLvVtR_12bazbom_graphNtB3_11ComponentId3newReEB3_
FNF:8
FNH:8
DA:8,3
DA:9,3
DA:10,3
DA:38,3
DA:39,3
DA:40,3
DA:42,1
DA:43,1
DA:44,1
DA:46,1
DA:47,1
DA:48,1
DA:49,1
DA:50,1
DA:51,1
DA:52,1
DA:54,1
DA:55,1
DA:56,1
DA:64,1
DA:65,1
DA:66,1
DA:67,1
DA:68,1
DA:71,1
DA:72,1
DA:73,1
DA:74,1
DA:75,1
DA:76,1
DA:77,1
DA:78,1
DA:79,1
DA:80,1
DA:81,1
DA:82,1
DA:83,1
DA:84,1
DA:85,1
DA:86,1
DA:89,1
DA:90,1
DA:91,1
DA:92,1
DA:93,1
DA:94,1
DA:95,1
BRF:0
BRH:0
LF:47
LH:47
end_of_record
SF:/home/runner/work/BazBOM/BazBOM/crates/bazbom-policy/src/lib.rs
FN:115,_RNvMs_Cs4a6dzC8eAwQ_13bazbom_policyNtB4_12PolicyConfig13check_license
FN:75,_RNvMs_Cs4a6dzC8eAwQ_13bazbom_policyNtB4_12PolicyConfig19check_vulnerability
FN:61,_RNvXCs4a6dzC8eAwQ_13bazbom_policyNtB2_12PolicyConfigNtNtCs5GmCzIpY9Qj_4core7default7Default7default
FN:199,_RNvNtCs4a6dzC8eAwQ_13bazbom_policy5testss_13test_kev_gate
FN:145,_RNvNtCs4a6dzC8eAwQ_13bazbom_policy5testss_19test_default_policy
FN:176,_RNvNtCs4a6dzC8eAwQ_13bazbom_policy5testss_33test_no_violation_below_threshold
FN:153,_RNvNtCs4a6dzC8eAwQ_13bazbom_policy5testss_33test_severity_threshold_violation
FNDA:0,_RNvMs_Cs4a6dzC8eAwQ_13bazbom_policyNtB4_12PolicyConfig13check_license
FNDA:3,_RNvMs_Cs4a6dzC8eAwQ_13bazbom_policyNtB4_12PolicyConfig19check_vulnerability
FNDA:4,_RNvXCs4a6dzC8eAwQ_13bazbom_policyNtB2_12PolicyConfigNtNtCs5GmCzIpY9Qj_4core7default7Default7default
FNDA:1,_RNvNtCs4a6dzC8eAwQ_13bazbom_policy5testss_13test_kev_gate
FNDA:1,_RNvNtCs4a6dzC8eAwQ_13bazbom_policy5testss_19test_default_policy
FNDA:1,_RNvNtCs4a6dzC8eAwQ_13bazbom_policy5testss_33test_no_violation_below_threshold
FNDA:1,_RNvNtCs4a6dzC8eAwQ_13bazbom_policy5testss_33test_severity_threshold_violation
FNF:7
FNH:6
DA:61,4
DA:62,4
DA:63,4
DA:64,4
DA:65,4
DA:66,4
DA:67,4
DA:68,4
DA:69,4
DA:70,4
DA:71,4
DA:75,3
DA:76,3
DA:77,3
DA:78,1
DA:79,1
DA:80,1
DA:81,1
DA:82,1
DA:83,1
DA:84,1
DA:85,1
DA:86,2
DA:87,0
DA:89,2
DA:90,1
DA:91,1
DA:92,1
DA:93,1
DA:94,1
DA:95,1
DA:97,1
DA:98,0
DA:99,0
DA:100,0
DA:101,0
DA:102,0
DA:103,0
DA:104,0
DA:105,0
DA:106,0
DA:107,0
DA:108,0
DA:109,0
DA:110,1
DA:112,1
DA:113,3
DA:115,0
DA:116,0
DA:117,0
DA:118,0
DA:119,0
DA:120,0
DA:121,0
DA:122,0
DA:123,0
DA:124,0
DA:126,0
DA:127,0
DA:128,0
DA:129,0
DA:130,0
DA:131,0
DA:132,0
DA:133,0
DA:134,0
DA:136,0
DA:137,0
DA:145,1
DA:146,1
DA:147,1
DA:148,1
DA:149,1
DA:150,1
DA:153,1
DA:154,1
DA:155,1
DA:156,1
DA:157,1
DA:159,1
DA:160,1
DA:161,1
DA:162,1
DA:163,1
DA:164,1
DA:165,1
DA:166,1
DA:167,1
DA:168,1
DA:169,1
DA:171,1
DA:172,1
DA:173,1
DA:176,1
DA:177,1
DA:178,1
DA:179,1
DA:180,1
DA:182,1
DA:183,1
DA:184,1
DA:185,1
DA:186,1
DA:187,1
DA:188,1
DA:189,1
DA:190,1
DA:191,1
DA:192,1
DA:194,1
DA:195,1
DA:196,1
DA:199,1
DA:200,1
DA:201,1
DA:202,1
DA:203,1
DA:205,1
DA:206,1
DA:207,1
DA:208,1
DA:209,1
DA:210,1
DA:211,1
DA:212,1
DA:213,1
DA:214,1
DA:215,1
DA:217,1
DA:218,1
DA:219,1
DA:220,1
BRF:0
BRH:0
LF:132
LH:98
end_of_record
SF:/home/runner/work/BazBOM/BazBOM/crates/bazbom/src/main.rs
FN:64,_RNvCscdl83nmlmkc_6bazbom4main
FN:86,_RNCNvCscdl83nmlmkc_6bazbom4main0B3_
FN:99,_RNCNvCscdl83nmlmkc_6bazbom4mains0_0B3_
FN:125,_RNCNvCscdl83nmlmkc_6bazbom4mains1_0B3_
FN:92,_RNCNvCscdl83nmlmkc_6bazbom4mains_0B3_
FN:86,_RNCNvCslWhSz2RGabY_6bazbom4main0B3_
FN:99,_RNCNvCslWhSz2RGabY_6bazbom4mains0_0B3_
FN:125,_RNCNvCslWhSz2RGabY_6bazbom4mains1_0B3_
FN:92,_RNCNvCslWhSz2RGabY_6bazbom4mains_0B3_
FN:64,_RNvCslWhSz2RGabY_6bazbom4main
FNDA:2,_RNvCscdl83nmlmkc_6bazbom4main
FNDA:0,_RNCNvCscdl83nmlmkc_6bazbom4main0B3_
FNDA:0,_RNCNvCscdl83nmlmkc_6bazbom4mains0_0B3_
FNDA:0,_RNCNvCscdl83nmlmkc_6bazbom4mains1_0B3_
FNDA:0,_RNCNvCscdl83nmlmkc_6bazbom4mains_0B3_
FNDA:0,_RNCNvCslWhSz2RGabY_6bazbom4main0B3_
FNDA:0,_RNCNvCslWhSz2RGabY_6bazbom4mains0_0B3_
FNDA:0,_RNCNvCslWhSz2RGabY_6bazbom4mains1_0B3_
FNDA:0,_RNCNvCslWhSz2RGabY_6bazbom4mains_0B3_
FNDA:0,_RNvCslWhSz2RGabY_6bazbom4main
FNF:5
FNH:1
DA:64,2
DA:65,2
DA:66,2
DA:67,2
DA:68,2
DA:69,2
DA:70,2
DA:71,2
DA:73,2
DA:74,2
DA:75,2
DA:76,2
DA:78,2
DA:79,2
DA:80,2
DA:81,2
DA:84,2
DA:85,2
DA:86,2
DA:87,2
DA:89,2
DA:90,2
DA:91,2
DA:92,2
DA:93,0
DA:95,2
DA:96,2
DA:97,2
DA:98,2
DA:99,2
DA:100,0
DA:102,2
DA:104,0
DA:105,0
DA:106,0
DA:107,0
DA:108,0
DA:109,0
DA:110,0
DA:111,0
DA:112,0
DA:113,0
DA:114,0
DA:115,0
DA:116,0
DA:117,0
DA:118,0
DA:119,0
DA:120,0
DA:121,0
DA:123,0
DA:124,0
DA:125,0
DA:127,0
DA:128,0
DA:130,0
DA:131,0
DA:133,0
DA:134,0
DA:135,0
DA:136,2
DA:138,0
DA:139,0
DA:140,0
DA:141,0
DA:143,0
DA:144,0
DA:145,0
DA:146,0
DA:148,0
DA:149,0
DA:150,0
DA:151,0
DA:152,0
DA:153,0
DA:154,0
DA:156,0
DA:161,2
DA:162,2
BRF:0
BRH:0
LF:83
LH:33
end_of_record